; Function Attrs: mustprogress nounwind uwtable
define hidden noundef zeroext i1 @_ZN8G1Policy23need_to_start_conc_markEPKcm(ptr nocapture noundef nonnull readonly align 8 dereferenceable(552) %0, ptr noundef %1, i64 noundef %2) local_unnamed_addr #1 align 2 {
  %4 = getelementptr inbounds i8, ptr %0, i64 240
  %5 = load ptr, ptr %4, align 8
  %6 = getelementptr inbounds i8, ptr %5, i64 1320
  %7 = load ptr, ptr %6, align 8
  %8 = load ptr, ptr %7, align 8
  %9 = getelementptr inbounds i8, ptr %8, i64 944
  %10 = load volatile i32, ptr %9, align 8
  %.not.i = icmp eq i32 %10, 0
  br i1 %.not.i, label %_ZNK8G1Policy26about_to_start_mixed_phaseEv.exit, label %_ZNK8G1Policy26about_to_start_mixed_phaseEv.exit.thread

_ZNK8G1Policy26about_to_start_mixed_phaseEv.exit: ; preds = %3
  %11 = getelementptr inbounds i8, ptr %5, i64 969
  %12 = load i8, ptr %11, align 1
  %13 = trunc i8 %12 to i1
  br i1 %13, label %_ZNK8G1Policy26about_to_start_mixed_phaseEv.exit.thread, label %14

14:                                               ; preds = %_ZNK8G1Policy26about_to_start_mixed_phaseEv.exit
  %15 = getelementptr inbounds i8, ptr %0, i64 80
  %16 = load ptr, ptr %15, align 8
  %17 = load ptr, ptr %16, align 8
  %18 = getelementptr inbounds i8, ptr %17, i64 24
  %19 = load ptr, ptr %18, align 8
  %20 = tail call noundef i64 %19(ptr noundef nonnull align 8 dereferenceable(40) %16) #18
  %21 = load ptr, ptr %4, align 8
  %22 = getelementptr inbounds i8, ptr %21, i64 176
  %23 = load i32, ptr %22, align 8
  %24 = getelementptr inbounds i8, ptr %21, i64 216
  %25 = load i32, ptr %24, align 8
  %26 = add i32 %25, %23
  %27 = zext i32 %26 to i64
  %28 = load i64, ptr @_ZN12G1HeapRegion10GrainBytesE, align 8
  %29 = mul i64 %28, %27
  %30 = shl i64 %2, 3
  %31 = add i64 %29, %30
  %32 = icmp ugt i64 %31, %20
  br i1 %32, label %33, label %_ZNK8G1Policy26about_to_start_mixed_phaseEv.exit.thread

33:                                               ; preds = %14
  %34 = getelementptr inbounds i8, ptr %21, i64 968
  %35 = load i8, ptr %34, align 1
  %36 = trunc i8 %35 to i1
  %37 = getelementptr inbounds i8, ptr %21, i64 974
  %38 = load i8, ptr %37, align 1
  %39 = trunc i8 %38 to i1
  %40 = xor i1 %39, true
  %41 = select i1 %36, i1 %40, i1 false
  %42 = load volatile ptr, ptr getelementptr inbounds (i8, ptr @_ZN16LogTagSetMappingILN6LogTag4typeE49ELS1_40ELS1_55ELS1_0ELS1_0ELS1_0EE7_tagsetE, i64 56), align 8
  %.not = icmp eq ptr %42, null
  br i1 %.not, label %_ZNK8G1Policy26about_to_start_mixed_phaseEv.exit.thread, label %43

43:                                               ; preds = %33
  %44 = select i1 %41, ptr @.str.24, ptr @.str.25
  %45 = uitofp i64 %20 to double
  %46 = load ptr, ptr %21, align 8
  %47 = getelementptr inbounds i8, ptr %46, i64 88
  %48 = load ptr, ptr %47, align 8
  %49 = tail call noundef i64 %48(ptr noundef nonnull align 8 dereferenceable(1488) %21) #18
  %50 = uitofp i64 %49 to double
  %51 = fdiv double %45, %50
  %52 = fmul double %51, 1.000000e+02
  tail call void (ptr, ...) @_ZN7LogImplILN6LogTag4typeE49ELS1_40ELS1_55ELS1_0ELS1_0ELS1_0EE5writeILN8LogLevel4typeE2EEEvPKcz(ptr noundef nonnull @.str.23, ptr noundef nonnull %44, i64 noundef %29, i64 noundef %30, i64 noundef %20, double noundef %52, ptr noundef %1)
  br label %_ZNK8G1Policy26about_to_start_mixed_phaseEv.exit.thread

_ZNK8G1Policy26about_to_start_mixed_phaseEv.exit.thread: ; preds = %3, %14, %33, %43, %_ZNK8G1Policy26about_to_start_mixed_phaseEv.exit
  %.013 = phi i1 [ false, %_ZNK8G1Policy26about_to_start_mixed_phaseEv.exit ], [ %41, %43 ], [ %41, %33 ], [ false, %14 ], [ false, %3 ]
  ret i1 %.013
}